target datalayout = "e-m:e-p270:32:32-p271:32:32-p272:64:64-i64:64-i128:128-f80:128-n8:16:32:64-S128"
target triple = "x86_64-pc-linux-gnu"

%struct.mspack_system = type { ptr, ptr, ptr, ptr, ptr, ptr, ptr, ptr, ptr, ptr, ptr }
%struct.lzxd_stream = type { ptr, ptr, ptr, i64, i64, ptr, i32, i32, i32, i32, i32, i32, i32, i32, i32, i32, i32, i32, i32, i8, i8, i8, i8, i8, i32, ptr, ptr, ptr, ptr, ptr, i32, i32, i32, [84 x i8], [2640 x i8], [314 x i8], [72 x i8], [104 x i16], [9248 x i16], [4596 x i16], [144 x i16], i8, [32768 x i8] }

; Function Attrs: nounwind uwtable
define i32 @lzxd_set_reference_data(ptr noundef %0, ptr noundef %1, ptr noundef %2, i32 noundef %3) #0 {
  %5 = alloca i32, align 4
  %6 = alloca ptr, align 8
  %7 = alloca ptr, align 8
  %8 = alloca ptr, align 8
  %9 = alloca i32, align 4
  %10 = alloca ptr, align 8
  %11 = alloca i32, align 4
  store ptr %0, ptr %6, align 8
  store ptr %1, ptr %7, align 8
  store ptr %2, ptr %8, align 8
  store i32 %3, ptr %9, align 4
  %12 = load ptr, ptr %6, align 8
  %13 = icmp ne ptr %12, null
  br i1 %13, label %15, label %14

14:                                               ; preds = %4
  store i32 1, ptr %5, align 4
  br label %77

15:                                               ; preds = %4
  %16 = load ptr, ptr %6, align 8
  %17 = getelementptr inbounds %struct.lzxd_stream, ptr %16, i32 0, i32 23
  %18 = load i8, ptr %17, align 8
  %19 = icmp ne i8 %18, 0
  br i1 %19, label %21, label %20

20:                                               ; preds = %15
  store i32 1, ptr %5, align 4
  br label %77

21:                                               ; preds = %15
  %22 = load ptr, ptr %6, align 8
  %23 = getelementptr inbounds %struct.lzxd_stream, ptr %22, i32 0, i32 3
  %24 = load i64, ptr %23, align 8
  %25 = icmp ne i64 %24, 0
  br i1 %25, label %26, label %27

26:                                               ; preds = %21
  store i32 1, ptr %5, align 4
  br label %77

27:                                               ; preds = %21
  %28 = load i32, ptr %9, align 4
  %29 = load ptr, ptr %6, align 8
  %30 = getelementptr inbounds %struct.lzxd_stream, ptr %29, i32 0, i32 6
  %31 = load i32, ptr %30, align 8
  %32 = icmp ugt i32 %28, %31
  br i1 %32, label %33, label %34

33:                                               ; preds = %27
  store i32 1, ptr %5, align 4
  br label %77

34:                                               ; preds = %27
  %35 = load i32, ptr %9, align 4
  %36 = icmp ugt i32 %35, 0
  br i1 %36, label %37, label %44

37:                                               ; preds = %34
  %38 = load ptr, ptr %7, align 8
  %39 = icmp ne ptr %38, null
  br i1 %39, label %40, label %43

40:                                               ; preds = %37
  %41 = load ptr, ptr %8, align 8
  %42 = icmp ne ptr %41, null
  br i1 %42, label %44, label %43

43:                                               ; preds = %40, %37
  store i32 1, ptr %5, align 4
  br label %77

44:                                               ; preds = %40, %34
  %45 = load i32, ptr %9, align 4
  %46 = load ptr, ptr %6, align 8
  %47 = getelementptr inbounds %struct.lzxd_stream, ptr %46, i32 0, i32 7
  store i32 %45, ptr %47, align 4
  %48 = load i32, ptr %9, align 4
  %49 = icmp ugt i32 %48, 0
  br i1 %49, label %50, label %73

50:                                               ; preds = %44
  %51 = load ptr, ptr %6, align 8
  %52 = getelementptr inbounds %struct.lzxd_stream, ptr %51, i32 0, i32 5
  %53 = load ptr, ptr %52, align 8
  %54 = load ptr, ptr %6, align 8
  %55 = getelementptr inbounds %struct.lzxd_stream, ptr %54, i32 0, i32 6
  %56 = load i32, ptr %55, align 8
  %57 = load i32, ptr %9, align 4
  %58 = sub i32 %56, %57
  %59 = zext i32 %58 to i64
  %60 = getelementptr inbounds i8, ptr %53, i64 %59
  store ptr %60, ptr %10, align 8
  %61 = load ptr, ptr %7, align 8
  %62 = getelementptr inbounds %struct.mspack_system, ptr %61, i32 0, i32 2
  %63 = load ptr, ptr %62, align 8
  %64 = load ptr, ptr %8, align 8
  %65 = load ptr, ptr %10, align 8
  %66 = load i32, ptr %9, align 4
  %67 = call i32 %63(ptr noundef %64, ptr noundef %65, i32 noundef %66)
  store i32 %67, ptr %11, align 4
  %68 = load i32, ptr %11, align 4
  %69 = load i32, ptr %9, align 4
  %70 = icmp slt i32 %68, %69
  br i1 %70, label %71, label %72

71:                                               ; preds = %50
  store i32 3, ptr %5, align 4
  br label %77

72:                                               ; preds = %50
  br label %73

73:                                               ; preds = %72, %44
  %74 = load i32, ptr %9, align 4
  %75 = load ptr, ptr %6, align 8
  %76 = getelementptr inbounds %struct.lzxd_stream, ptr %75, i32 0, i32 7
  store i32 %74, ptr %76, align 4
  store i32 0, ptr %5, align 4
  br label %77

77:                                               ; preds = %73, %71, %43, %33, %26, %20, %14
  %78 = load i32, ptr %5, align 4
  ret i32 %78
}