; Function Attrs: nounwind uwtable
define noundef i32 @lzxd_set_reference_data(ptr noundef %0, ptr noundef readonly %1, ptr noundef %2, i32 noundef %3) local_unnamed_addr #0 {
  %.not = icmp eq ptr %0, null
  br i1 %.not, label %33, label %5

5:                                                ; preds = %4
  %6 = getelementptr inbounds i8, ptr %0, i64 104
  %7 = load i8, ptr %6, align 8
  %.not25 = icmp eq i8 %7, 0
  br i1 %.not25, label %33, label %8

8:                                                ; preds = %5
  %9 = getelementptr inbounds i8, ptr %0, i64 24
  %10 = load i64, ptr %9, align 8
  %.not26 = icmp eq i64 %10, 0
  br i1 %.not26, label %11, label %33

11:                                               ; preds = %8
  %12 = getelementptr inbounds i8, ptr %0, i64 48
  %13 = load i32, ptr %12, align 8
  %14 = icmp ult i32 %13, %3
  br i1 %14, label %33, label %15

15:                                               ; preds = %11
  %.not27 = icmp eq i32 %3, 0
  br i1 %.not27, label %.thread, label %17

.thread:                                          ; preds = %15
  %16 = getelementptr inbounds i8, ptr %0, i64 52
  br label %31

17:                                               ; preds = %15
  %18 = icmp ne ptr %1, null
  %19 = icmp ne ptr %2, null
  %or.cond = and i1 %18, %19
  br i1 %or.cond, label %20, label %33

20:                                               ; preds = %17
  %21 = getelementptr inbounds i8, ptr %0, i64 52
  store i32 %3, ptr %21, align 4
  %22 = getelementptr inbounds i8, ptr %0, i64 40
  %23 = load ptr, ptr %22, align 8
  %24 = sub i32 %13, %3
  %25 = zext i32 %24 to i64
  %26 = getelementptr inbounds i8, ptr %23, i64 %25
  %27 = getelementptr inbounds i8, ptr %1, i64 16
  %28 = load ptr, ptr %27, align 8
  %29 = tail call i32 %28(ptr noundef nonnull %2, ptr noundef %26, i32 noundef %3) #5
  %30 = icmp slt i32 %29, %3
  br i1 %30, label %33, label %31

31:                                               ; preds = %.thread, %20
  %32 = phi ptr [ %16, %.thread ], [ %21, %20 ]
  store i32 %3, ptr %32, align 4
  br label %33

33:                                               ; preds = %20, %17, %11, %8, %5, %4, %31
  %.0 = phi i32 [ 0, %31 ], [ 1, %4 ], [ 1, %5 ], [ 1, %8 ], [ 1, %11 ], [ 1, %17 ], [ 3, %20 ]
  ret i32 %.0
}